target datalayout = "e-m:e-p270:32:32-p271:32:32-p272:64:64-i64:64-i128:128-f80:128-n8:16:32:64-S128"
target triple = "x86_64-pc-linux-gnu"

%struct.AV1RawFrameHeader = type { i8, i8, i32, i32, i8, i8, i8, i8, i8, i8, i8, i32, i8, i8, i8, [32 x i32], i8, i16, i16, i8, i8, i8, i16, i16, [7 x i8], i8, i8, [8 x i8], i8, i8, i8, [7 x i8], [7 x i32], i8, i8, i8, i8, i8, i8, i8, i8, i8, [64 x i8], [64 x i8], [64 x i8], [64 x i8], i16, i8, i16, i16, i8, i8, i8, i8, i8, i8, i8, i8, i8, i8, i8, i8, i8, i8, i8, [8 x [8 x i8]], [8 x [8 x i16]], i8, i8, i8, i8, i8, [4 x i8], i8, i8, i8, [8 x i8], [8 x i8], [2 x i8], [2 x i8], i8, i8, [8 x i8], [8 x i8], [8 x i8], [8 x i8], [3 x i8], i8, i8, i8, i8, i8, i8, i8, [8 x i8], [8 x i8], [8 x i8], [8 x [6 x i32]], %struct.AV1RawFilmGrainParams }
%struct.AV1RawFilmGrainParams = type { i8, i16, i8, i8, i8, [14 x i8], [14 x i8], i8, i8, [10 x i8], [10 x i8], i8, [10 x i8], [10 x i8], i8, i8, [24 x i8], [25 x i8], [25 x i8], i8, i8, i8, i8, i16, i8, i8, i16, i8, i8 }

@.str.188 = private unnamed_addr constant [17 x i8] c"delta_lf_present\00", align 1
@.str.189 = private unnamed_addr constant [13 x i8] c"delta_lf_res\00", align 1
@.str.190 = private unnamed_addr constant [15 x i8] c"delta_lf_multi\00", align 1

; Function Attrs: nounwind uwtable
define internal i32 @cbs_av1_read_delta_lf_params(ptr noundef %0, ptr noundef %1, ptr noundef %2) #0 {
  %4 = alloca i32, align 4
  %5 = alloca ptr, align 8
  %6 = alloca ptr, align 8
  %7 = alloca ptr, align 8
  %8 = alloca i32, align 4
  %9 = alloca i32, align 4
  %10 = alloca i32, align 4
  %11 = alloca i32, align 4
  %12 = alloca i32, align 4
  store ptr %0, ptr %5, align 8, !tbaa !4
  store ptr %1, ptr %6, align 8, !tbaa !103
  store ptr %2, ptr %7, align 8, !tbaa !159
  call void @llvm.lifetime.start.p0(i64 4, ptr %8) #8
  %13 = load ptr, ptr %7, align 8, !tbaa !159
  %14 = getelementptr inbounds nuw %struct.AV1RawFrameHeader, ptr %13, i32 0, i32 67
  %15 = load i8, ptr %14, align 2, !tbaa !340
  %16 = icmp ne i8 %15, 0
  br i1 %16, label %17, label %110

17:                                               ; preds = %3
  %18 = load ptr, ptr %7, align 8, !tbaa !159
  %19 = getelementptr inbounds nuw %struct.AV1RawFrameHeader, ptr %18, i32 0, i32 26
  %20 = load i8, ptr %19, align 2, !tbaa !269
  %21 = icmp ne i8 %20, 0
  br i1 %21, label %44, label %22

22:                                               ; preds = %17
  br label %23

23:                                               ; preds = %22
  call void @llvm.lifetime.start.p0(i64 4, ptr %9) #8
  br label %24

24:                                               ; preds = %23
  %25 = load ptr, ptr %5, align 8, !tbaa !4
  %26 = load ptr, ptr %6, align 8, !tbaa !103
  %27 = call i32 @ff_cbs_read_simple_unsigned(ptr noundef %25, ptr noundef %26, i32 noundef 1, ptr noundef @.str.188, ptr noundef %9)
  store i32 %27, ptr %8, align 4, !tbaa !11
  %28 = load i32, ptr %8, align 4, !tbaa !11
  %29 = icmp slt i32 %28, 0
  br i1 %29, label %30, label %32

30:                                               ; preds = %24
  %31 = load i32, ptr %8, align 4, !tbaa !11
  store i32 %31, ptr %4, align 4
  store i32 1, ptr %10, align 4
  br label %39

32:                                               ; preds = %24
  br label %33

33:                                               ; preds = %32
  br label %34

34:                                               ; preds = %33
  %35 = load i32, ptr %9, align 4, !tbaa !11
  %36 = trunc i32 %35 to i8
  %37 = load ptr, ptr %7, align 8, !tbaa !159
  %38 = getelementptr inbounds nuw %struct.AV1RawFrameHeader, ptr %37, i32 0, i32 69
  store i8 %36, ptr %38, align 4, !tbaa !342
  store i32 0, ptr %10, align 4
  br label %39

39:                                               ; preds = %34, %30
  call void @llvm.lifetime.end.p0(i64 4, ptr %9) #8
  %40 = load i32, ptr %10, align 4
  switch i32 %40, label %127 [
    i32 0, label %41
  ]

41:                                               ; preds = %39
  br label %42

42:                                               ; preds = %41
  br label %43

43:                                               ; preds = %42
  br label %50

44:                                               ; preds = %17
  br label %45

45:                                               ; preds = %44
  %46 = load ptr, ptr %7, align 8, !tbaa !159
  %47 = getelementptr inbounds nuw %struct.AV1RawFrameHeader, ptr %46, i32 0, i32 69
  store i8 0, ptr %47, align 4, !tbaa !342
  br label %48

48:                                               ; preds = %45
  br label %49

49:                                               ; preds = %48
  br label %50

50:                                               ; preds = %49, %43
  %51 = load ptr, ptr %7, align 8, !tbaa !159
  %52 = getelementptr inbounds nuw %struct.AV1RawFrameHeader, ptr %51, i32 0, i32 69
  %53 = load i8, ptr %52, align 4, !tbaa !342
  %54 = icmp ne i8 %53, 0
  br i1 %54, label %55, label %98

55:                                               ; preds = %50
  br label %56

56:                                               ; preds = %55
  call void @llvm.lifetime.start.p0(i64 4, ptr %11) #8
  br label %57

57:                                               ; preds = %56
  %58 = load ptr, ptr %5, align 8, !tbaa !4
  %59 = load ptr, ptr %6, align 8, !tbaa !103
  %60 = call i32 @ff_cbs_read_simple_unsigned(ptr noundef %58, ptr noundef %59, i32 noundef 2, ptr noundef @.str.189, ptr noundef %11)
  store i32 %60, ptr %8, align 4, !tbaa !11
  %61 = load i32, ptr %8, align 4, !tbaa !11
  %62 = icmp slt i32 %61, 0
  br i1 %62, label %63, label %65

63:                                               ; preds = %57
  %64 = load i32, ptr %8, align 4, !tbaa !11
  store i32 %64, ptr %4, align 4
  store i32 1, ptr %10, align 4
  br label %72

65:                                               ; preds = %57
  br label %66

66:                                               ; preds = %65
  br label %67

67:                                               ; preds = %66
  %68 = load i32, ptr %11, align 4, !tbaa !11
  %69 = trunc i32 %68 to i8
  %70 = load ptr, ptr %7, align 8, !tbaa !159
  %71 = getelementptr inbounds nuw %struct.AV1RawFrameHeader, ptr %70, i32 0, i32 70
  store i8 %69, ptr %71, align 1, !tbaa !343
  store i32 0, ptr %10, align 4
  br label %72

72:                                               ; preds = %67, %63
  call void @llvm.lifetime.end.p0(i64 4, ptr %11) #8
  %73 = load i32, ptr %10, align 4
  switch i32 %73, label %127 [
    i32 0, label %74
  ]

74:                                               ; preds = %72
  br label %75

75:                                               ; preds = %74
  br label %76

76:                                               ; preds = %75
  br label %77

77:                                               ; preds = %76
  call void @llvm.lifetime.start.p0(i64 4, ptr %12) #8
  br label %78

78:                                               ; preds = %77
  %79 = load ptr, ptr %5, align 8, !tbaa !4
  %80 = load ptr, ptr %6, align 8, !tbaa !103
  %81 = call i32 @ff_cbs_read_simple_unsigned(ptr noundef %79, ptr noundef %80, i32 noundef 1, ptr noundef @.str.190, ptr noundef %12)
  store i32 %81, ptr %8, align 4, !tbaa !11
  %82 = load i32, ptr %8, align 4, !tbaa !11
  %83 = icmp slt i32 %82, 0
  br i1 %83, label %84, label %86

84:                                               ; preds = %78
  %85 = load i32, ptr %8, align 4, !tbaa !11
  store i32 %85, ptr %4, align 4
  store i32 1, ptr %10, align 4
  br label %93

86:                                               ; preds = %78
  br label %87

87:                                               ; preds = %86
  br label %88

88:                                               ; preds = %87
  %89 = load i32, ptr %12, align 4, !tbaa !11
  %90 = trunc i32 %89 to i8
  %91 = load ptr, ptr %7, align 8, !tbaa !159
  %92 = getelementptr inbounds nuw %struct.AV1RawFrameHeader, ptr %91, i32 0, i32 71
  store i8 %90, ptr %92, align 2, !tbaa !344
  store i32 0, ptr %10, align 4
  br label %93

93:                                               ; preds = %88, %84
  call void @llvm.lifetime.end.p0(i64 4, ptr %12) #8
  %94 = load i32, ptr %10, align 4
  switch i32 %94, label %127 [
    i32 0, label %95
  ]

95:                                               ; preds = %93
  br label %96

96:                                               ; preds = %95
  br label %97

97:                                               ; preds = %96
  br label %109

98:                                               ; preds = %50
  br label %99

99:                                               ; preds = %98
  %100 = load ptr, ptr %7, align 8, !tbaa !159
  %101 = getelementptr inbounds nuw %struct.AV1RawFrameHeader, ptr %100, i32 0, i32 70
  store i8 0, ptr %101, align 1, !tbaa !343
  br label %102

102:                                              ; preds = %99
  br label %103

103:                                              ; preds = %102
  br label %104

104:                                              ; preds = %103
  %105 = load ptr, ptr %7, align 8, !tbaa !159
  %106 = getelementptr inbounds nuw %struct.AV1RawFrameHeader, ptr %105, i32 0, i32 71
  store i8 0, ptr %106, align 2, !tbaa !344
  br label %107

107:                                              ; preds = %104
  br label %108

108:                                              ; preds = %107
  br label %109

109:                                              ; preds = %108, %97
  br label %126

110:                                              ; preds = %3
  br label %111

111:                                              ; preds = %110
  %112 = load ptr, ptr %7, align 8, !tbaa !159
  %113 = getelementptr inbounds nuw %struct.AV1RawFrameHeader, ptr %112, i32 0, i32 69
  store i8 0, ptr %113, align 4, !tbaa !342
  br label %114

114:                                              ; preds = %111
  br label %115

115:                                              ; preds = %114
  br label %116

116:                                              ; preds = %115
  %117 = load ptr, ptr %7, align 8, !tbaa !159
  %118 = getelementptr inbounds nuw %struct.AV1RawFrameHeader, ptr %117, i32 0, i32 70
  store i8 0, ptr %118, align 1, !tbaa !343
  br label %119

119:                                              ; preds = %116
  br label %120

120:                                              ; preds = %119
  br label %121

121:                                              ; preds = %120
  %122 = load ptr, ptr %7, align 8, !tbaa !159
  %123 = getelementptr inbounds nuw %struct.AV1RawFrameHeader, ptr %122, i32 0, i32 71
  store i8 0, ptr %123, align 2, !tbaa !344
  br label %124

124:                                              ; preds = %121
  br label %125

125:                                              ; preds = %124
  br label %126

126:                                              ; preds = %125, %109
  store i32 0, ptr %4, align 4
  store i32 1, ptr %10, align 4
  br label %127

127:                                              ; preds = %126, %93, %72, %39
  call void @llvm.lifetime.end.p0(i64 4, ptr %8) #8
  %128 = load i32, ptr %4, align 4
  ret i32 %128
}