; Function Attrs: nounwind uwtable
define internal fastcc range(i32 -2147483648, 1) i32 @cbs_av1_read_delta_lf_params(ptr noundef %0, ptr noundef nonnull %1, ptr noundef captures(none) %2) unnamed_addr #0 {
  %4 = alloca i32, align 4
  %5 = alloca i32, align 4
  %6 = alloca i32, align 4
  %7 = getelementptr inbounds nuw i8, ptr %2, i64 710
  %8 = load i8, ptr %7, align 2, !tbaa !358
  %.not = icmp eq i8 %8, 0
  br i1 %.not, label %38, label %9

9:                                                ; preds = %3
  %10 = getelementptr inbounds nuw i8, ptr %2, i64 178
  %11 = load i8, ptr %10, align 2, !tbaa !259
  %.not34 = icmp eq i8 %11, 0
  br i1 %.not34, label %12, label %.thread

12:                                               ; preds = %9
  call void @llvm.lifetime.start.p0(i64 4, ptr nonnull %4) #8
  %13 = call i32 @ff_cbs_read_simple_unsigned(ptr noundef %0, ptr noundef nonnull %1, i32 noundef 1, ptr noundef nonnull @.str.188, ptr noundef nonnull %4) #8
  %14 = icmp sgt i32 %13, -1
  br i1 %14, label %16, label %.critedge

.thread:                                          ; preds = %9
  %15 = getelementptr inbounds nuw i8, ptr %2, i64 712
  store i8 0, ptr %15, align 4, !tbaa !360
  br label %35

16:                                               ; preds = %12
  %17 = load i32, ptr %4, align 4, !tbaa !69
  %18 = trunc i32 %17 to i8
  %19 = getelementptr inbounds nuw i8, ptr %2, i64 712
  store i8 %18, ptr %19, align 4, !tbaa !360
  call void @llvm.lifetime.end.p0(i64 4, ptr nonnull %4) #8
  %20 = icmp eq i8 %18, 0
  br i1 %20, label %35, label %21

21:                                               ; preds = %16
  call void @llvm.lifetime.start.p0(i64 4, ptr nonnull %5) #8
  %22 = call i32 @ff_cbs_read_simple_unsigned(ptr noundef %0, ptr noundef nonnull %1, i32 noundef 2, ptr noundef nonnull @.str.189, ptr noundef nonnull %5) #8
  %23 = icmp sgt i32 %22, -1
  br i1 %23, label %25, label %24

24:                                               ; preds = %21
  call void @llvm.lifetime.end.p0(i64 4, ptr nonnull %5) #8
  br label %42

25:                                               ; preds = %21
  %26 = load i32, ptr %5, align 4, !tbaa !69
  %27 = trunc i32 %26 to i8
  %28 = getelementptr inbounds nuw i8, ptr %2, i64 713
  store i8 %27, ptr %28, align 1, !tbaa !361
  call void @llvm.lifetime.end.p0(i64 4, ptr nonnull %5) #8
  call void @llvm.lifetime.start.p0(i64 4, ptr nonnull %6) #8
  %29 = call i32 @ff_cbs_read_simple_unsigned(ptr noundef %0, ptr noundef nonnull %1, i32 noundef 1, ptr noundef nonnull @.str.190, ptr noundef nonnull %6) #8
  %30 = icmp sgt i32 %29, -1
  br i1 %30, label %.thread38, label %34

.thread38:                                        ; preds = %25
  %31 = load i32, ptr %6, align 4, !tbaa !69
  %32 = trunc i32 %31 to i8
  %33 = getelementptr inbounds nuw i8, ptr %2, i64 714
  store i8 %32, ptr %33, align 2, !tbaa !362
  call void @llvm.lifetime.end.p0(i64 4, ptr nonnull %6) #8
  br label %42

34:                                               ; preds = %25
  call void @llvm.lifetime.end.p0(i64 4, ptr nonnull %6) #8
  br label %42

35:                                               ; preds = %.thread, %16
  %36 = getelementptr inbounds nuw i8, ptr %2, i64 713
  store i8 0, ptr %36, align 1, !tbaa !361
  %37 = getelementptr inbounds nuw i8, ptr %2, i64 714
  store i8 0, ptr %37, align 2, !tbaa !362
  br label %42

38:                                               ; preds = %3
  %39 = getelementptr inbounds nuw i8, ptr %2, i64 712
  store i8 0, ptr %39, align 4, !tbaa !360
  %40 = getelementptr inbounds nuw i8, ptr %2, i64 713
  store i8 0, ptr %40, align 1, !tbaa !361
  %41 = getelementptr inbounds nuw i8, ptr %2, i64 714
  store i8 0, ptr %41, align 2, !tbaa !362
  br label %42

.critedge:                                        ; preds = %12
  call void @llvm.lifetime.end.p0(i64 4, ptr nonnull %4) #8
  br label %42

42:                                               ; preds = %38, %35, %.thread38, %34, %24, %.critedge
  %.130 = phi i32 [ %29, %34 ], [ %22, %24 ], [ %13, %.critedge ], [ 0, %.thread38 ], [ 0, %35 ], [ 0, %38 ]
  ret i32 %.130
}